target datalayout = "e-m:e-p270:32:32-p271:32:32-p272:64:64-i64:64-i128:128-f80:128-n8:16:32:64-S128"
target triple = "x86_64-pc-linux-gnu"

%struct.sqlite3expert = type { i32, ptr, ptr, ptr, ptr, ptr, ptr, ptr, i32, ptr, i32, %struct.IdxHash, ptr }
%struct.IdxHash = type { ptr, [1023 x ptr] }
%struct.IdxTable = type { i32, ptr, ptr, ptr }
%struct.IdxWrite = type { ptr, i32, ptr }

@.str.45 = private unnamed_addr constant [5 x i8] c"main\00", align 1

; Function Attrs: nounwind uwtable
define internal ptr @idxMalloc(ptr noundef %0, i32 noundef %1) #0 {
  %3 = alloca ptr, align 8
  %4 = alloca i32, align 4
  %5 = alloca ptr, align 8
  store ptr %0, ptr %3, align 8, !tbaa !130
  store i32 %1, ptr %4, align 4, !tbaa !3
  call void @llvm.lifetime.start.p0(i64 8, ptr %5) #14
  %6 = load i32, ptr %4, align 4, !tbaa !3
  %7 = call ptr @sqlite3_malloc(i32 noundef %6)
  store ptr %7, ptr %5, align 8, !tbaa !53
  %8 = load ptr, ptr %5, align 8, !tbaa !53
  %9 = icmp ne ptr %8, null
  br i1 %9, label %10, label %14

10:                                               ; preds = %2
  %11 = load ptr, ptr %5, align 8, !tbaa !53
  %12 = load i32, ptr %4, align 4, !tbaa !3
  %13 = sext i32 %12 to i64
  call void @llvm.memset.p0.i64(ptr align 1 %11, i8 0, i64 %13, i1 false)
  br label %16

14:                                               ; preds = %2
  %15 = load ptr, ptr %3, align 8, !tbaa !130
  store i32 7, ptr %15, align 4, !tbaa !3
  br label %16

16:                                               ; preds = %14, %10
  %17 = load ptr, ptr %5, align 8, !tbaa !53
  call void @llvm.lifetime.end.p0(i64 8, ptr %5) #14
  ret ptr %17
}

; Function Attrs: nounwind uwtable
define internal i32 @idxAuthCallback(ptr noundef %0, i32 noundef %1, ptr noundef %2, ptr noundef %3, ptr noundef %4, ptr noundef %5) #0 {
  %7 = alloca ptr, align 8
  %8 = alloca i32, align 4
  %9 = alloca ptr, align 8
  %10 = alloca ptr, align 8
  %11 = alloca ptr, align 8
  %12 = alloca ptr, align 8
  %13 = alloca i32, align 4
  %14 = alloca ptr, align 8
  %15 = alloca ptr, align 8
  %16 = alloca ptr, align 8
  store ptr %0, ptr %7, align 8, !tbaa !53
  store i32 %1, ptr %8, align 4, !tbaa !3
  store ptr %2, ptr %9, align 8, !tbaa !36
  store ptr %3, ptr %10, align 8, !tbaa !36
  store ptr %4, ptr %11, align 8, !tbaa !36
  store ptr %5, ptr %12, align 8, !tbaa !36
  call void @llvm.lifetime.start.p0(i64 4, ptr %13) #14
  store i32 0, ptr %13, align 4, !tbaa !3
  %17 = load i32, ptr %8, align 4, !tbaa !3
  %18 = icmp eq i32 %17, 18
  br i1 %18, label %25, label %19

19:                                               ; preds = %6
  %20 = load i32, ptr %8, align 4, !tbaa !3
  %21 = icmp eq i32 %20, 23
  br i1 %21, label %25, label %22

22:                                               ; preds = %19
  %23 = load i32, ptr %8, align 4, !tbaa !3
  %24 = icmp eq i32 %23, 9
  br i1 %24, label %25, label %104

25:                                               ; preds = %22, %19, %6
  %26 = load ptr, ptr %11, align 8, !tbaa !36
  %27 = call i32 @sqlite3_stricmp(ptr noundef %26, ptr noundef @.str.45)
  %28 = icmp eq i32 %27, 0
  br i1 %28, label %29, label %103

29:                                               ; preds = %25
  call void @llvm.lifetime.start.p0(i64 8, ptr %14) #14
  %30 = load ptr, ptr %7, align 8, !tbaa !53
  store ptr %30, ptr %14, align 8, !tbaa !116
  call void @llvm.lifetime.start.p0(i64 8, ptr %15) #14
  %31 = load ptr, ptr %14, align 8, !tbaa !116
  %32 = getelementptr inbounds nuw %struct.sqlite3expert, ptr %31, i32 0, i32 4
  %33 = load ptr, ptr %32, align 8, !tbaa !136
  store ptr %33, ptr %15, align 8, !tbaa !135
  br label %34

34:                                               ; preds = %46, %29
  %35 = load ptr, ptr %15, align 8, !tbaa !135
  %36 = icmp ne ptr %35, null
  br i1 %36, label %37, label %50

37:                                               ; preds = %34
  %38 = load ptr, ptr %9, align 8, !tbaa !36
  %39 = load ptr, ptr %15, align 8, !tbaa !135
  %40 = getelementptr inbounds nuw %struct.IdxTable, ptr %39, i32 0, i32 1
  %41 = load ptr, ptr %40, align 8, !tbaa !146
  %42 = call i32 @sqlite3_stricmp(ptr noundef %38, ptr noundef %41)
  %43 = icmp eq i32 0, %42
  br i1 %43, label %44, label %45

44:                                               ; preds = %37
  br label %50

45:                                               ; preds = %37
  br label %46

46:                                               ; preds = %45
  %47 = load ptr, ptr %15, align 8, !tbaa !135
  %48 = getelementptr inbounds nuw %struct.IdxTable, ptr %47, i32 0, i32 3
  %49 = load ptr, ptr %48, align 8, !tbaa !137
  store ptr %49, ptr %15, align 8, !tbaa !135
  br label %34, !llvm.loop !147

50:                                               ; preds = %44, %34
  %51 = load ptr, ptr %15, align 8, !tbaa !135
  %52 = icmp ne ptr %51, null
  br i1 %52, label %53, label %102

53:                                               ; preds = %50
  call void @llvm.lifetime.start.p0(i64 8, ptr %16) #14
  %54 = load ptr, ptr %14, align 8, !tbaa !116
  %55 = getelementptr inbounds nuw %struct.sqlite3expert, ptr %54, i32 0, i32 6
  %56 = load ptr, ptr %55, align 8, !tbaa !148
  store ptr %56, ptr %16, align 8, !tbaa !149
  br label %57

57:                                               ; preds = %74, %53
  %58 = load ptr, ptr %16, align 8, !tbaa !149
  %59 = icmp ne ptr %58, null
  br i1 %59, label %60, label %78

60:                                               ; preds = %57
  %61 = load ptr, ptr %16, align 8, !tbaa !149
  %62 = getelementptr inbounds nuw %struct.IdxWrite, ptr %61, i32 0, i32 0
  %63 = load ptr, ptr %62, align 8, !tbaa !150
  %64 = load ptr, ptr %15, align 8, !tbaa !135
  %65 = icmp eq ptr %63, %64
  br i1 %65, label %66, label %73

66:                                               ; preds = %60
  %67 = load ptr, ptr %16, align 8, !tbaa !149
  %68 = getelementptr inbounds nuw %struct.IdxWrite, ptr %67, i32 0, i32 1
  %69 = load i32, ptr %68, align 8, !tbaa !152
  %70 = load i32, ptr %8, align 4, !tbaa !3
  %71 = icmp eq i32 %69, %70
  br i1 %71, label %72, label %73

72:                                               ; preds = %66
  br label %78

73:                                               ; preds = %66, %60
  br label %74

74:                                               ; preds = %73
  %75 = load ptr, ptr %16, align 8, !tbaa !149
  %76 = getelementptr inbounds nuw %struct.IdxWrite, ptr %75, i32 0, i32 2
  %77 = load ptr, ptr %76, align 8, !tbaa !153
  store ptr %77, ptr %16, align 8, !tbaa !149
  br label %57, !llvm.loop !154

78:                                               ; preds = %72, %57
  %79 = load ptr, ptr %16, align 8, !tbaa !149
  %80 = icmp eq ptr %79, null
  br i1 %80, label %81, label %101

81:                                               ; preds = %78
  %82 = call ptr @idxMalloc(ptr noundef %13, i32 noundef 24)
  store ptr %82, ptr %16, align 8, !tbaa !149
  %83 = load i32, ptr %13, align 4, !tbaa !3
  %84 = icmp eq i32 %83, 0
  br i1 %84, label %85, label %100

85:                                               ; preds = %81
  %86 = load ptr, ptr %15, align 8, !tbaa !135
  %87 = load ptr, ptr %16, align 8, !tbaa !149
  %88 = getelementptr inbounds nuw %struct.IdxWrite, ptr %87, i32 0, i32 0
  store ptr %86, ptr %88, align 8, !tbaa !150
  %89 = load i32, ptr %8, align 4, !tbaa !3
  %90 = load ptr, ptr %16, align 8, !tbaa !149
  %91 = getelementptr inbounds nuw %struct.IdxWrite, ptr %90, i32 0, i32 1
  store i32 %89, ptr %91, align 8, !tbaa !152
  %92 = load ptr, ptr %14, align 8, !tbaa !116
  %93 = getelementptr inbounds nuw %struct.sqlite3expert, ptr %92, i32 0, i32 6
  %94 = load ptr, ptr %93, align 8, !tbaa !148
  %95 = load ptr, ptr %16, align 8, !tbaa !149
  %96 = getelementptr inbounds nuw %struct.IdxWrite, ptr %95, i32 0, i32 2
  store ptr %94, ptr %96, align 8, !tbaa !153
  %97 = load ptr, ptr %16, align 8, !tbaa !149
  %98 = load ptr, ptr %14, align 8, !tbaa !116
  %99 = getelementptr inbounds nuw %struct.sqlite3expert, ptr %98, i32 0, i32 6
  store ptr %97, ptr %99, align 8, !tbaa !148
  br label %100

100:                                              ; preds = %85, %81
  br label %101

101:                                              ; preds = %100, %78
  call void @llvm.lifetime.end.p0(i64 8, ptr %16) #14
  br label %102

102:                                              ; preds = %101, %50
  call void @llvm.lifetime.end.p0(i64 8, ptr %15) #14
  call void @llvm.lifetime.end.p0(i64 8, ptr %14) #14
  br label %103

103:                                              ; preds = %102, %25
  br label %104

104:                                              ; preds = %103, %22
  %105 = load i32, ptr %13, align 4, !tbaa !3
  call void @llvm.lifetime.end.p0(i64 4, ptr %13) #14
  ret i32 %105
}