; Function Attrs: nounwind uwtable
define internal range(i32 0, 8) i32 @idxAuthCallback(ptr noundef captures(none) %0, i32 noundef %1, ptr noundef %2, ptr readnone captures(none) %3, ptr noundef %4, ptr readnone captures(none) %5) #2 {
  switch i32 %1, label %.critedge [
    i32 23, label %7
    i32 18, label %7
    i32 9, label %7
  ]

7:                                                ; preds = %6, %6, %6
  %8 = tail call i32 @sqlite3_stricmp(ptr noundef %4, ptr noundef nonnull @.str.45) #43
  %9 = icmp eq i32 %8, 0
  br i1 %9, label %10, label %.critedge

10:                                               ; preds = %7
  %11 = getelementptr inbounds nuw i8, ptr %0, i64 32
  %.02937 = load ptr, ptr %11, align 8, !tbaa !167
  %.not38 = icmp eq ptr %.02937, null
  br i1 %.not38, label %.critedge, label %.lr.ph

.lr.ph:                                           ; preds = %10, %16
  %.02939 = phi ptr [ %.029, %16 ], [ %.02937, %10 ]
  %12 = getelementptr inbounds nuw i8, ptr %.02939, i64 8
  %13 = load ptr, ptr %12, align 8, !tbaa !163
  %14 = tail call i32 @sqlite3_stricmp(ptr noundef %2, ptr noundef %13) #43
  %15 = icmp eq i32 %14, 0
  br i1 %15, label %18, label %16

16:                                               ; preds = %.lr.ph
  %17 = getelementptr inbounds nuw i8, ptr %.02939, i64 24
  %.029 = load ptr, ptr %17, align 8, !tbaa !167
  %.not = icmp eq ptr %.029, null
  br i1 %.not, label %.critedge, label %.lr.ph, !llvm.loop !168

18:                                               ; preds = %.lr.ph
  %19 = getelementptr inbounds nuw i8, ptr %0, i64 48
  %.040 = load ptr, ptr %19, align 8, !tbaa !169
  %cond41 = icmp eq ptr %.040, null
  br i1 %cond41, label %._crit_edge, label %.lr.ph43

.lr.ph43:                                         ; preds = %18, %26
  %.042 = phi ptr [ %.0, %26 ], [ %.040, %18 ]
  %20 = load ptr, ptr %.042, align 8, !tbaa !170
  %21 = icmp eq ptr %20, %.02939
  br i1 %21, label %22, label %26

22:                                               ; preds = %.lr.ph43
  %23 = getelementptr inbounds nuw i8, ptr %.042, i64 8
  %24 = load i32, ptr %23, align 8, !tbaa !172
  %25 = icmp eq i32 %24, %1
  br i1 %25, label %.critedge, label %26

26:                                               ; preds = %.lr.ph43, %22
  %27 = getelementptr inbounds nuw i8, ptr %.042, i64 16
  %.0 = load ptr, ptr %27, align 8, !tbaa !169
  %cond = icmp eq ptr %.0, null
  br i1 %cond, label %._crit_edge, label %.lr.ph43, !llvm.loop !173

._crit_edge:                                      ; preds = %26, %18
  %28 = tail call ptr @sqlite3_malloc(i32 noundef 24) #43
  %.not.i = icmp eq ptr %28, null
  br i1 %.not.i, label %.critedge, label %29

29:                                               ; preds = %._crit_edge
  %30 = getelementptr inbounds nuw i8, ptr %28, i64 12
  tail call void @llvm.memset.p0.i64(ptr noundef nonnull align 1 dereferenceable(24) %30, i8 0, i64 12, i1 false)
  store ptr %.02939, ptr %28, align 8, !tbaa !170
  %31 = getelementptr inbounds nuw i8, ptr %28, i64 8
  store i32 %1, ptr %31, align 8, !tbaa !172
  %32 = load ptr, ptr %19, align 8, !tbaa !174
  %33 = getelementptr inbounds nuw i8, ptr %28, i64 16
  store ptr %32, ptr %33, align 8, !tbaa !175
  store ptr %28, ptr %19, align 8, !tbaa !174
  br label %.critedge

.critedge:                                        ; preds = %16, %22, %10, %._crit_edge, %29, %6, %7
  %.032 = phi i32 [ 0, %6 ], [ 0, %29 ], [ 0, %7 ], [ 7, %._crit_edge ], [ 0, %10 ], [ 0, %22 ], [ 0, %16 ]
  ret i32 %.032
}